; Function Attrs: mustprogress uwtable
define hidden noundef ptr @_ZN3euf6plugin2mkEP4exprjPKPNS_5enodeE(ptr nocapture noundef nonnull readonly align 8 dereferenceable(16) %this, ptr noundef %e, i32 noundef %n, ptr noundef %args) local_unnamed_addr #3 align 2 {
entry:
  %g = getelementptr inbounds i8, ptr %this, i64 8
  %0 = load ptr, ptr %g, align 8
  %m_expr2enode.i = getelementptr inbounds i8, ptr %0, i64 128
  %1 = load ptr, ptr %m_expr2enode.i, align 8
  %cmp.i.i.i = icmp eq ptr %1, null
  br i1 %cmp.i.i.i, label %if.then, label %_ZNK6vectorIPN3euf5enodeELb0EjE3getEjRKS2_.exit.i

_ZNK6vectorIPN3euf5enodeELb0EjE3getEjRKS2_.exit.i: ; preds = %entry
  %2 = load i32, ptr %e, align 4
  %arrayidx.i.i.i = getelementptr inbounds i8, ptr %1, i64 -4
  %3 = load i32, ptr %arrayidx.i.i.i, align 4
  %cmp.not.i.i = icmp ugt i32 %3, %2
  br i1 %cmp.not.i.i, label %_ZNK3euf6egraph4findEP4expr.exit, label %if.then

_ZNK3euf6egraph4findEP4expr.exit:                 ; preds = %_ZNK6vectorIPN3euf5enodeELb0EjE3getEjRKS2_.exit.i
  %idxprom.i.i = zext i32 %2 to i64
  %arrayidx.i.i = getelementptr inbounds ptr, ptr %1, i64 %idxprom.i.i
  %.then.val.i = load ptr, ptr %arrayidx.i.i, align 8
  %tobool.not = icmp eq ptr %.then.val.i, null
  br i1 %tobool.not, label %if.then, label %if.end

if.then:                                          ; preds = %entry, %_ZNK6vectorIPN3euf5enodeELb0EjE3getEjRKS2_.exit.i, %_ZNK3euf6egraph4findEP4expr.exit
  %call3 = tail call noundef ptr @_ZN3euf6egraph2mkEP4exprjjPKPNS_5enodeE(ptr noundef nonnull align 8 dereferenceable(536) %0, ptr noundef %e, i32 noundef 0, i32 noundef %n, ptr noundef %args)
  br label %if.end

if.end:                                           ; preds = %if.then, %_ZNK3euf6egraph4findEP4expr.exit
  %r.0 = phi ptr [ %.then.val.i, %_ZNK3euf6egraph4findEP4expr.exit ], [ %call3, %if.then ]
  ret ptr %r.0
}